target datalayout = "e-m:e-p270:32:32-p271:32:32-p272:64:64-i64:64-i128:128-f80:128-n8:16:32:64-S128"
target triple = "x86_64-pc-linux-gnu"

; Function Attrs: nounwind uwtable
define i32 @pg_strncasecmp(ptr noundef %0, ptr noundef %1, i64 noundef %2) #0 {
  %4 = alloca i32, align 4
  %5 = alloca ptr, align 8
  %6 = alloca ptr, align 8
  %7 = alloca i64, align 8
  %8 = alloca i8, align 1
  %9 = alloca i8, align 1
  %10 = alloca i32, align 4
  %11 = alloca i32, align 4
  %12 = alloca i32, align 4
  %13 = alloca i32, align 4
  %14 = alloca i32, align 4
  store ptr %0, ptr %5, align 8
  store ptr %1, ptr %6, align 8
  store i64 %2, ptr %7, align 8
  br label %15

15:                                               ; preds = %134, %3
  %16 = load i64, ptr %7, align 8
  %17 = add i64 %16, -1
  store i64 %17, ptr %7, align 8
  %18 = icmp ugt i64 %16, 0
  br i1 %18, label %19, label %135

19:                                               ; preds = %15
  call void @llvm.lifetime.start.p0(i64 1, ptr %8) #3
  %20 = load ptr, ptr %5, align 8
  %21 = getelementptr inbounds nuw i8, ptr %20, i32 1
  store ptr %21, ptr %5, align 8
  %22 = load i8, ptr %20, align 1
  store i8 %22, ptr %8, align 1
  call void @llvm.lifetime.start.p0(i64 1, ptr %9) #3
  %23 = load ptr, ptr %6, align 8
  %24 = getelementptr inbounds nuw i8, ptr %23, i32 1
  store ptr %24, ptr %6, align 8
  %25 = load i8, ptr %23, align 1
  store i8 %25, ptr %9, align 1
  %26 = load i8, ptr %8, align 1
  %27 = zext i8 %26 to i32
  %28 = load i8, ptr %9, align 1
  %29 = zext i8 %28 to i32
  %30 = icmp ne i32 %27, %29
  br i1 %30, label %31, label %126

31:                                               ; preds = %19
  %32 = load i8, ptr %8, align 1
  %33 = zext i8 %32 to i32
  %34 = icmp sge i32 %33, 65
  br i1 %34, label %35, label %44

35:                                               ; preds = %31
  %36 = load i8, ptr %8, align 1
  %37 = zext i8 %36 to i32
  %38 = icmp sle i32 %37, 90
  br i1 %38, label %39, label %44

39:                                               ; preds = %35
  %40 = load i8, ptr %8, align 1
  %41 = zext i8 %40 to i32
  %42 = add i32 %41, 32
  %43 = trunc i32 %42 to i8
  store i8 %43, ptr %8, align 1
  br label %72

44:                                               ; preds = %35, %31
  %45 = load i8, ptr %8, align 1
  %46 = zext i8 %45 to i32
  %47 = and i32 %46, 128
  %48 = icmp ne i32 %47, 0
  br i1 %48, label %49, label %71

49:                                               ; preds = %44
  %50 = call ptr @__ctype_b_loc() #4
  %51 = load ptr, ptr %50, align 8
  %52 = load i8, ptr %8, align 1
  %53 = zext i8 %52 to i32
  %54 = sext i32 %53 to i64
  %55 = getelementptr inbounds i16, ptr %51, i64 %54
  %56 = load i16, ptr %55, align 2
  %57 = zext i16 %56 to i32
  %58 = and i32 %57, 256
  %59 = icmp ne i32 %58, 0
  br i1 %59, label %60, label %71

60:                                               ; preds = %49
  call void @llvm.lifetime.start.p0(i64 4, ptr %10) #3
  %61 = call ptr @__ctype_tolower_loc() #4
  %62 = load ptr, ptr %61, align 8
  %63 = load i8, ptr %8, align 1
  %64 = zext i8 %63 to i32
  %65 = sext i32 %64 to i64
  %66 = getelementptr inbounds i32, ptr %62, i64 %65
  %67 = load i32, ptr %66, align 4
  store i32 %67, ptr %10, align 4
  %68 = load i32, ptr %10, align 4
  store i32 %68, ptr %11, align 4
  call void @llvm.lifetime.end.p0(i64 4, ptr %10) #3
  %69 = load i32, ptr %11, align 4
  %70 = trunc i32 %69 to i8
  store i8 %70, ptr %8, align 1
  br label %71

71:                                               ; preds = %60, %49, %44
  br label %72

72:                                               ; preds = %71, %39
  %73 = load i8, ptr %9, align 1
  %74 = zext i8 %73 to i32
  %75 = icmp sge i32 %74, 65
  br i1 %75, label %76, label %85

76:                                               ; preds = %72
  %77 = load i8, ptr %9, align 1
  %78 = zext i8 %77 to i32
  %79 = icmp sle i32 %78, 90
  br i1 %79, label %80, label %85

80:                                               ; preds = %76
  %81 = load i8, ptr %9, align 1
  %82 = zext i8 %81 to i32
  %83 = add i32 %82, 32
  %84 = trunc i32 %83 to i8
  store i8 %84, ptr %9, align 1
  br label %113

85:                                               ; preds = %76, %72
  %86 = load i8, ptr %9, align 1
  %87 = zext i8 %86 to i32
  %88 = and i32 %87, 128
  %89 = icmp ne i32 %88, 0
  br i1 %89, label %90, label %112

90:                                               ; preds = %85
  %91 = call ptr @__ctype_b_loc() #4
  %92 = load ptr, ptr %91, align 8
  %93 = load i8, ptr %9, align 1
  %94 = zext i8 %93 to i32
  %95 = sext i32 %94 to i64
  %96 = getelementptr inbounds i16, ptr %92, i64 %95
  %97 = load i16, ptr %96, align 2
  %98 = zext i16 %97 to i32
  %99 = and i32 %98, 256
  %100 = icmp ne i32 %99, 0
  br i1 %100, label %101, label %112

101:                                              ; preds = %90
  call void @llvm.lifetime.start.p0(i64 4, ptr %12) #3
  %102 = call ptr @__ctype_tolower_loc() #4
  %103 = load ptr, ptr %102, align 8
  %104 = load i8, ptr %9, align 1
  %105 = zext i8 %104 to i32
  %106 = sext i32 %105 to i64
  %107 = getelementptr inbounds i32, ptr %103, i64 %106
  %108 = load i32, ptr %107, align 4
  store i32 %108, ptr %12, align 4
  %109 = load i32, ptr %12, align 4
  store i32 %109, ptr %13, align 4
  call void @llvm.lifetime.end.p0(i64 4, ptr %12) #3
  %110 = load i32, ptr %13, align 4
  %111 = trunc i32 %110 to i8
  store i8 %111, ptr %9, align 1
  br label %112

112:                                              ; preds = %101, %90, %85
  br label %113

113:                                              ; preds = %112, %80
  %114 = load i8, ptr %8, align 1
  %115 = zext i8 %114 to i32
  %116 = load i8, ptr %9, align 1
  %117 = zext i8 %116 to i32
  %118 = icmp ne i32 %115, %117
  br i1 %118, label %119, label %125

119:                                              ; preds = %113
  %120 = load i8, ptr %8, align 1
  %121 = zext i8 %120 to i32
  %122 = load i8, ptr %9, align 1
  %123 = zext i8 %122 to i32
  %124 = sub i32 %121, %123
  store i32 %124, ptr %4, align 4
  store i32 1, ptr %14, align 4
  br label %132

125:                                              ; preds = %113
  br label %126

126:                                              ; preds = %125, %19
  %127 = load i8, ptr %8, align 1
  %128 = zext i8 %127 to i32
  %129 = icmp eq i32 %128, 0
  br i1 %129, label %130, label %131

130:                                              ; preds = %126
  store i32 3, ptr %14, align 4
  br label %132

131:                                              ; preds = %126
  store i32 0, ptr %14, align 4
  br label %132

132:                                              ; preds = %131, %130, %119
  call void @llvm.lifetime.end.p0(i64 1, ptr %9) #3
  call void @llvm.lifetime.end.p0(i64 1, ptr %8) #3
  %133 = load i32, ptr %14, align 4
  switch i32 %133, label %138 [
    i32 0, label %134
    i32 1, label %136
    i32 3, label %135
  ]

134:                                              ; preds = %132
  br label %15, !llvm.loop !3

135:                                              ; preds = %132, %15
  store i32 0, ptr %4, align 4
  br label %136

136:                                              ; preds = %135, %132
  %137 = load i32, ptr %4, align 4
  ret i32 %137

138:                                              ; preds = %132
  unreachable
}