; Function Attrs: nofree nosync nounwind memory(read, inaccessiblemem: none) uwtable
define range(i32 -255, 256) i32 @pg_strncasecmp(ptr noundef readonly captures(none) %0, ptr noundef readonly captures(none) %1, i64 noundef %2) local_unnamed_addr #0 {
  br label %4

4:                                                ; preds = %51, %3
  %.035 = phi i64 [ %2, %3 ], [ %5, %51 ]
  %.034 = phi ptr [ %1, %3 ], [ %9, %51 ]
  %.033 = phi ptr [ %0, %3 ], [ %7, %51 ]
  %5 = add i64 %.035, -1
  %.not = icmp eq i64 %.035, 0
  br i1 %.not, label %.thread51, label %6

6:                                                ; preds = %4
  %7 = getelementptr inbounds nuw i8, ptr %.033, i64 1
  %8 = load i8, ptr %.033, align 1
  %9 = getelementptr inbounds nuw i8, ptr %.034, i64 1
  %10 = load i8, ptr %.034, align 1
  %.not43 = icmp eq i8 %8, %10
  br i1 %.not43, label %51, label %11

11:                                               ; preds = %6
  %12 = add i8 %8, -65
  %or.cond = icmp ult i8 %12, 26
  br i1 %or.cond, label %13, label %15

13:                                               ; preds = %11
  %14 = or disjoint i8 %8, 32
  br label %29

15:                                               ; preds = %11
  %.not44 = icmp sgt i8 %8, -1
  br i1 %.not44, label %29, label %16

16:                                               ; preds = %15
  %17 = tail call ptr @__ctype_b_loc() #4
  %18 = load ptr, ptr %17, align 8
  %19 = zext i8 %8 to i64
  %20 = getelementptr inbounds nuw i16, ptr %18, i64 %19
  %21 = load i16, ptr %20, align 2
  %22 = and i16 %21, 256
  %.not45 = icmp eq i16 %22, 0
  br i1 %.not45, label %29, label %23

23:                                               ; preds = %16
  %24 = tail call ptr @__ctype_tolower_loc() #4
  %25 = load ptr, ptr %24, align 8
  %26 = getelementptr inbounds nuw i32, ptr %25, i64 %19
  %27 = load i32, ptr %26, align 4
  %28 = trunc i32 %27 to i8
  br label %29

29:                                               ; preds = %15, %16, %23, %13
  %.138 = phi i8 [ %14, %13 ], [ %28, %23 ], [ %8, %16 ], [ %8, %15 ]
  %30 = add i8 %10, -65
  %or.cond5 = icmp ult i8 %30, 26
  br i1 %or.cond5, label %31, label %33

31:                                               ; preds = %29
  %32 = or disjoint i8 %10, 32
  br label %47

33:                                               ; preds = %29
  %.not46 = icmp sgt i8 %10, -1
  br i1 %.not46, label %47, label %34

34:                                               ; preds = %33
  %35 = tail call ptr @__ctype_b_loc() #4
  %36 = load ptr, ptr %35, align 8
  %37 = zext i8 %10 to i64
  %38 = getelementptr inbounds nuw i16, ptr %36, i64 %37
  %39 = load i16, ptr %38, align 2
  %40 = and i16 %39, 256
  %.not47 = icmp eq i16 %40, 0
  br i1 %.not47, label %47, label %41

41:                                               ; preds = %34
  %42 = tail call ptr @__ctype_tolower_loc() #4
  %43 = load ptr, ptr %42, align 8
  %44 = getelementptr inbounds nuw i32, ptr %43, i64 %37
  %45 = load i32, ptr %44, align 4
  %46 = trunc i32 %45 to i8
  br label %47

47:                                               ; preds = %33, %34, %41, %31
  %.036 = phi i8 [ %32, %31 ], [ %46, %41 ], [ %10, %34 ], [ %10, %33 ]
  %.not48 = icmp eq i8 %.138, %.036
  br i1 %.not48, label %51, label %.thread

.thread:                                          ; preds = %47
  %48 = zext i8 %.036 to i32
  %49 = zext i8 %.138 to i32
  %50 = sub nsw i32 %49, %48
  br label %.thread51

51:                                               ; preds = %47, %6
  %.037 = phi i8 [ %.138, %47 ], [ %8, %6 ]
  %52 = icmp eq i8 %.037, 0
  br i1 %52, label %.thread51, label %4

.thread51:                                        ; preds = %51, %4, %.thread
  %.2 = phi i32 [ %50, %.thread ], [ 0, %4 ], [ 0, %51 ]
  ret i32 %.2
}